target datalayout = "e-m:e-p270:32:32-p271:32:32-p272:64:64-i64:64-i128:128-f80:128-n8:16:32:64-S128"
target triple = "x86_64-unknown-linux-gnu"

; Function Attrs: mustprogress uwtable
define noundef zeroext i1 @_ZN6google8protobuf8internal12ValidateEnumEiPKj(i32 noundef %value, ptr noundef %data) #4 {
entry:
  %retval.i = alloca i1, align 1
  %value.addr.i = alloca i32, align 4
  %data.addr.i = alloca ptr, align 8
  %min_seq.i = alloca i16, align 2
  %length_seq.i = alloca i16, align 2
  %adjusted.i = alloca i64, align 8
  %length_bitmap.i = alloca i16, align 2
  %num_ordered.i = alloca i16, align 2
  %pos.i = alloca i64, align 8
  %sample.i = alloca i32, align 4
  %value.addr = alloca i32, align 4
  %data.addr = alloca ptr, align 8
  store i32 %value, ptr %value.addr, align 4
  store ptr %data, ptr %data.addr, align 8
  %0 = load i32, ptr %value.addr, align 4
  %1 = load ptr, ptr %data.addr, align 8
  store i32 %0, ptr %value.addr.i, align 4
  store ptr %1, ptr %data.addr.i, align 8
  %2 = load ptr, ptr %data.addr.i, align 8
  %3 = load i32, ptr %2, align 4
  %and.i = and i32 %3, 65535
  %conv.i = trunc i32 %and.i to i16
  store i16 %conv.i, ptr %min_seq.i, align 2
  %4 = load ptr, ptr %data.addr.i, align 8
  %5 = load i32, ptr %4, align 4
  %shr.i = lshr i32 %5, 16
  %conv2.i = trunc i32 %shr.i to i16
  store i16 %conv2.i, ptr %length_seq.i, align 2
  %6 = load i32, ptr %value.addr.i, align 4
  %conv3.i = sext i32 %6 to i64
  %7 = load i16, ptr %min_seq.i, align 2
  %conv4.i = sext i16 %7 to i64
  %sub.i = sub i64 %conv3.i, %conv4.i
  store i64 %sub.i, ptr %adjusted.i, align 8
  %8 = load i64, ptr %adjusted.i, align 8
  %9 = load i16, ptr %length_seq.i, align 2
  %conv5.i = zext i16 %9 to i64
  %cmp.i = icmp ult i64 %8, %conv5.i
  br i1 %cmp.i, label %if.then.i, label %if.end.i

if.then.i:                                        ; preds = %entry
  store i1 true, ptr %retval.i, align 1
  br label %_ZN6google8protobuf8internal19ValidateEnumInlinedEiPKj.exit

if.end.i:                                         ; preds = %entry
  %10 = load ptr, ptr %data.addr.i, align 8
  %arrayidx7.i = getelementptr inbounds i32, ptr %10, i64 1
  %11 = load i32, ptr %arrayidx7.i, align 4
  %and8.i = and i32 %11, 65535
  %conv9.i = trunc i32 %and8.i to i16
  store i16 %conv9.i, ptr %length_bitmap.i, align 2
  %12 = load i16, ptr %length_seq.i, align 2
  %conv10.i = zext i16 %12 to i64
  %13 = load i64, ptr %adjusted.i, align 8
  %sub11.i = sub i64 %13, %conv10.i
  store i64 %sub11.i, ptr %adjusted.i, align 8
  %14 = load i64, ptr %adjusted.i, align 8
  %15 = load i16, ptr %length_bitmap.i, align 2
  %conv12.i = zext i16 %15 to i64
  %cmp13.i = icmp ult i64 %14, %conv12.i
  br i1 %cmp13.i, label %if.then15.i, label %if.end20.i

if.then15.i:                                      ; preds = %if.end.i
  %16 = load ptr, ptr %data.addr.i, align 8
  %17 = load i64, ptr %adjusted.i, align 8
  %div.i = udiv i64 %17, 32
  %add.i = add i64 2, %div.i
  %arrayidx16.i = getelementptr inbounds i32, ptr %16, i64 %add.i
  %18 = load i32, ptr %arrayidx16.i, align 4
  %19 = load i64, ptr %adjusted.i, align 8
  %rem.i = urem i64 %19, 32
  %sh_prom.i = trunc i64 %rem.i to i32
  %shr17.i = lshr i32 %18, %sh_prom.i
  %and18.i = and i32 %shr17.i, 1
  %cmp19.i = icmp eq i32 %and18.i, 1
  store i1 %cmp19.i, ptr %retval.i, align 1
  br label %_ZN6google8protobuf8internal19ValidateEnumInlinedEiPKj.exit

if.end20.i:                                       ; preds = %if.end.i
  %20 = load ptr, ptr %data.addr.i, align 8
  %arrayidx21.i = getelementptr inbounds i32, ptr %20, i64 1
  %21 = load i32, ptr %arrayidx21.i, align 4
  %shr22.i = lshr i32 %21, 16
  %conv23.i = trunc i32 %shr22.i to i16
  store i16 %conv23.i, ptr %num_ordered.i, align 2
  %22 = load i16, ptr %length_bitmap.i, align 2
  %conv24.i = zext i16 %22 to i32
  %div25.i = sdiv i32 %conv24.i, 32
  %add26.i = add nsw i32 2, %div25.i
  %23 = load ptr, ptr %data.addr.i, align 8
  %idx.ext.i = sext i32 %add26.i to i64
  %add.ptr.i = getelementptr inbounds i32, ptr %23, i64 %idx.ext.i
  store ptr %add.ptr.i, ptr %data.addr.i, align 8
  store i64 0, ptr %pos.i, align 8
  br label %while.cond.i

while.cond.i:                                     ; preds = %if.end32.i, %if.end20.i
  %24 = load i64, ptr %pos.i, align 8
  %25 = load i16, ptr %num_ordered.i, align 2
  %conv27.i = zext i16 %25 to i64
  %cmp28.i = icmp ult i64 %24, %conv27.i
  br i1 %cmp28.i, label %while.body.i, label %while.end.i

while.body.i:                                     ; preds = %while.cond.i
  %26 = load ptr, ptr %data.addr.i, align 8
  %27 = load i64, ptr %pos.i, align 8
  %arrayidx29.i = getelementptr inbounds i32, ptr %26, i64 %27
  %28 = load i32, ptr %arrayidx29.i, align 4
  store i32 %28, ptr %sample.i, align 4
  %29 = load i32, ptr %sample.i, align 4
  %30 = load i32, ptr %value.addr.i, align 4
  %cmp30.i = icmp eq i32 %29, %30
  br i1 %cmp30.i, label %if.then31.i, label %if.end32.i

if.then31.i:                                      ; preds = %while.body.i
  store i1 true, ptr %retval.i, align 1
  br label %_ZN6google8protobuf8internal19ValidateEnumInlinedEiPKj.exit

if.end32.i:                                       ; preds = %while.body.i
  %31 = load i64, ptr %pos.i, align 8
  %mul.i = mul i64 2, %31
  %32 = load i32, ptr %sample.i, align 4
  %33 = load i32, ptr %value.addr.i, align 4
  %cmp33.i = icmp sgt i32 %32, %33
  %cond.i = select i1 %cmp33.i, i32 1, i32 2
  %conv34.i = sext i32 %cond.i to i64
  %add35.i = add i64 %mul.i, %conv34.i
  store i64 %add35.i, ptr %pos.i, align 8
  br label %while.cond.i, !llvm.loop !6

while.end.i:                                      ; preds = %while.cond.i
  store i1 false, ptr %retval.i, align 1
  br label %_ZN6google8protobuf8internal19ValidateEnumInlinedEiPKj.exit

_ZN6google8protobuf8internal19ValidateEnumInlinedEiPKj.exit: ; preds = %while.end.i, %if.then31.i, %if.then15.i, %if.then.i
  %34 = load i1, ptr %retval.i, align 1
  ret i1 %34
}