; Function Attrs: mustprogress nofree norecurse nosync nounwind willreturn memory(argmem: read) uwtable
define noundef zeroext i1 @_ZN6google8protobuf8internal12ValidateEnumEiPKj(i32 noundef %value, ptr noundef readonly captures(none) %data) local_unnamed_addr #4 {
entry:
  %0 = load i32, ptr %data, align 4
  %conv.i = zext i32 %0 to i64
  %shr.i = lshr i32 %0, 16
  %conv2.i = zext nneg i32 %shr.i to i64
  %conv3.i = sext i32 %value to i64
  %sext = shl i64 %conv.i, 48
  %conv4.i = ashr exact i64 %sext, 48
  %sub.i = sub nsw i64 %conv3.i, %conv4.i
  %cmp.i = icmp ult i64 %sub.i, %conv2.i
  br i1 %cmp.i, label %_ZN6google8protobuf8internal19ValidateEnumInlinedEiPKj.exit, label %if.end.i

if.end.i:                                         ; preds = %entry
  %arrayidx7.i = getelementptr inbounds nuw i8, ptr %data, i64 4
  %1 = load i32, ptr %arrayidx7.i, align 4
  %sub11.i = sub nuw nsw i64 %sub.i, %conv2.i
  %conv9.i.mask = and i32 %1, 65535
  %conv12.i = zext nneg i32 %conv9.i.mask to i64
  %cmp13.i = icmp ult i64 %sub11.i, %conv12.i
  br i1 %cmp13.i, label %if.then15.i, label %if.end20.i

if.then15.i:                                      ; preds = %if.end.i
  %div.i19 = lshr i64 %sub11.i, 5
  %2 = getelementptr inbounds nuw i32, ptr %data, i64 %div.i19
  %arrayidx16.i = getelementptr inbounds nuw i8, ptr %2, i64 8
  %3 = load i32, ptr %arrayidx16.i, align 4
  %4 = trunc i64 %sub11.i to i32
  %sh_prom.i = and i32 %4, 31
  %5 = shl nuw i32 1, %sh_prom.i
  %6 = and i32 %3, %5
  %cmp19.i = icmp ne i32 %6, 0
  br label %_ZN6google8protobuf8internal19ValidateEnumInlinedEiPKj.exit

if.end20.i:                                       ; preds = %if.end.i
  %shr22.i = lshr i32 %1, 16
  %conv23.i = zext nneg i32 %shr22.i to i64
  %conv24.i = lshr i32 %1, 5
  %div25.i18 = and i32 %conv24.i, 2047
  %7 = zext nneg i32 %div25.i18 to i64
  %8 = getelementptr inbounds nuw i32, ptr %data, i64 %7
  %add.ptr.i = getelementptr inbounds nuw i8, ptr %8, i64 8
  %cmp28.i20.not = icmp ult i32 %1, 65536
  br i1 %cmp28.i20.not, label %_ZN6google8protobuf8internal19ValidateEnumInlinedEiPKj.exit, label %while.body.i

while.body.i:                                     ; preds = %if.end20.i, %if.end32.i
  %pos.i.021 = phi i64 [ %add35.i, %if.end32.i ], [ 0, %if.end20.i ]
  %arrayidx29.i = getelementptr inbounds nuw i32, ptr %add.ptr.i, i64 %pos.i.021
  %9 = load i32, ptr %arrayidx29.i, align 4
  %cmp30.i = icmp eq i32 %9, %value
  br i1 %cmp30.i, label %_ZN6google8protobuf8internal19ValidateEnumInlinedEiPKj.exit, label %if.end32.i

if.end32.i:                                       ; preds = %while.body.i
  %mul.i = shl nuw nsw i64 %pos.i.021, 1
  %cmp33.i = icmp sgt i32 %9, %value
  %cond.i = select i1 %cmp33.i, i64 1, i64 2
  %add35.i = add nuw i64 %cond.i, %mul.i
  %cmp28.i = icmp ult i64 %add35.i, %conv23.i
  br i1 %cmp28.i, label %while.body.i, label %_ZN6google8protobuf8internal19ValidateEnumInlinedEiPKj.exit, !llvm.loop !8

_ZN6google8protobuf8internal19ValidateEnumInlinedEiPKj.exit: ; preds = %while.body.i, %if.end32.i, %if.end20.i, %entry, %if.then15.i
  %retval.i.0 = phi i1 [ %cmp19.i, %if.then15.i ], [ true, %entry ], [ false, %if.end20.i ], [ %cmp30.i, %if.end32.i ], [ %cmp30.i, %while.body.i ]
  ret i1 %retval.i.0
}